; Function Attrs: nofree norecurse nosync nounwind memory(argmem: read) uwtable
define i24 @lv_chart_get_series_color(ptr nocapture noundef readnone %0, ptr noundef readonly %1) local_unnamed_addr #4 {
  %.not = icmp eq ptr %1, null
  br i1 %.not, label %.preheader, label %3

.preheader:                                       ; preds = %2, %.preheader
  br label %.preheader

3:                                                ; preds = %2
  %4 = getelementptr inbounds nuw i8, ptr %1, i64 16
  %.sroa.0.0.copyload = load i24, ptr %4, align 8
  ret i24 %.sroa.0.0.copyload
}